; Function Attrs: mustprogress nofree norecurse nosync nounwind willreturn memory(none) uwtable
define noundef i32 @_ZN6google8protobuf25CalculateBase64EscapedLenEib(i32 noundef %0, i1 noundef zeroext %1) local_unnamed_addr #21 {
  %3 = sdiv i32 %0, 3
  %4 = shl nsw i32 %3, 2
  %5 = srem i32 %0, 3
  switch i32 %5, label %9 [
    i32 0, label %12
    i32 1, label %6
  ]

6:                                                ; preds = %2
  %7 = or disjoint i32 %4, 2
  %8 = add nsw i32 %4, 4
  %spec.select = select i1 %1, i32 %8, i32 %7
  br label %12

9:                                                ; preds = %2
  %10 = or disjoint i32 %4, 3
  %11 = add nsw i32 %4, 4
  %spec.select11 = select i1 %1, i32 %11, i32 %10
  br label %12

12:                                               ; preds = %9, %6, %2
  %.0 = phi i32 [ %4, %2 ], [ %spec.select, %6 ], [ %spec.select11, %9 ]
  ret i32 %.0
}